target datalayout = "e-m:e-p270:32:32-p271:32:32-p272:64:64-i64:64-i128:128-f80:128-n8:16:32:64-S128"
target triple = "x86_64-pc-linux-gnu"

%struct.object_type_map = type { ptr, i32 }

@.str.1 = private unnamed_addr constant [16 x i8] c"objectaddress.c\00", align 1
@.str.22 = private unnamed_addr constant [30 x i8] c"unrecognized object type \22%s\22\00", align 1
@__func__.read_objtype_from_string = private unnamed_addr constant [25 x i8] c"read_objtype_from_string\00", align 1

; Function Attrs: nounwind uwtable
define dso_local i32 @read_objtype_from_string(ptr noundef %0) #0 {
  %2 = alloca i32, align 4
  %3 = alloca ptr, align 8
  %4 = alloca i32, align 4
  %5 = alloca i32, align 4
  store ptr %0, ptr %3, align 8
  call void @llvm.lifetime.start.p0(i64 4, ptr %4) #10
  store i32 0, ptr %4, align 4
  br label %6

6:                                                ; preds = %26, %1
  %7 = load i32, ptr %4, align 4
  %8 = sext i32 %7 to i64
  %9 = icmp ult i64 %8, 59
  br i1 %9, label %10, label %29

10:                                               ; preds = %6
  %11 = load i32, ptr %4, align 4
  %12 = sext i32 %11 to i64
  %13 = getelementptr inbounds [59 x %struct.object_type_map], ptr @ObjectTypeMap, i64 0, i64 %12
  %14 = getelementptr inbounds nuw %struct.object_type_map, ptr %13, i32 0, i32 0
  %15 = load ptr, ptr %14, align 16
  %16 = load ptr, ptr %3, align 8
  %17 = call i32 @strcmp(ptr noundef %15, ptr noundef %16) #12
  %18 = icmp eq i32 %17, 0
  br i1 %18, label %19, label %25

19:                                               ; preds = %10
  %20 = load i32, ptr %4, align 4
  %21 = sext i32 %20 to i64
  %22 = getelementptr inbounds [59 x %struct.object_type_map], ptr @ObjectTypeMap, i64 0, i64 %21
  %23 = getelementptr inbounds nuw %struct.object_type_map, ptr %22, i32 0, i32 1
  %24 = load i32, ptr %23, align 8
  store i32 %24, ptr %2, align 4
  store i32 1, ptr %5, align 4
  br label %42

25:                                               ; preds = %10
  br label %26

26:                                               ; preds = %25
  %27 = load i32, ptr %4, align 4
  %28 = add i32 %27, 1
  store i32 %28, ptr %4, align 4
  br label %6, !llvm.loop !9

29:                                               ; preds = %6
  br label %30

30:                                               ; preds = %29
  br i1 true, label %31, label %33

31:                                               ; preds = %30
  %32 = call zeroext i1 @errstart_cold(i32 noundef 21, ptr noundef null) #11
  br i1 %32, label %35, label %39

33:                                               ; preds = %30
  %34 = call zeroext i1 @errstart(i32 noundef 21, ptr noundef null)
  br i1 %34, label %35, label %39

35:                                               ; preds = %33, %31
  %36 = call i32 @errcode(i32 noundef 50856066)
  %37 = load ptr, ptr %3, align 8
  %38 = call i32 (ptr, ...) @errmsg(ptr noundef @.str.22, ptr noundef %37)
  call void @errfinish(ptr noundef @.str.1, i32 noundef 2616, ptr noundef @__func__.read_objtype_from_string)
  br label %39

39:                                               ; preds = %35, %33, %31
  unreachable

40:                                               ; No predecessors!
  br label %41

41:                                               ; preds = %40
  store i32 -1, ptr %2, align 4
  store i32 1, ptr %5, align 4
  br label %42

42:                                               ; preds = %41, %19
  call void @llvm.lifetime.end.p0(i64 4, ptr %4) #10
  %43 = load i32, ptr %2, align 4
  ret i32 %43
}