; Function Attrs: nounwind uwtable
define dso_local i32 @read_objtype_from_string(ptr noundef %0) local_unnamed_addr #0 {
  br label %3

2:                                                ; preds = %3
  %indvars.iv.next = add nuw nsw i64 %indvars.iv, 1
  %exitcond.not = icmp eq i64 %indvars.iv.next, 59
  br i1 %exitcond.not, label %11, label %3, !llvm.loop !4

3:                                                ; preds = %1, %2
  %indvars.iv = phi i64 [ 0, %1 ], [ %indvars.iv.next, %2 ]
  %4 = getelementptr inbounds nuw [59 x %struct.object_type_map], ptr @ObjectTypeMap, i64 0, i64 %indvars.iv
  %5 = load ptr, ptr %4, align 16
  %6 = tail call i32 @strcmp(ptr noundef nonnull dereferenceable(1) %5, ptr noundef nonnull dereferenceable(1) %0) #13
  %7 = icmp eq i32 %6, 0
  br i1 %7, label %8, label %2

8:                                                ; preds = %3
  %9 = getelementptr inbounds nuw i8, ptr %4, i64 8
  %10 = load i32, ptr %9, align 8
  ret i32 %10

11:                                               ; preds = %2
  %12 = tail call zeroext i1 @errstart_cold(i32 noundef 21, ptr noundef null) #12
  tail call void @llvm.assume(i1 %12)
  %13 = tail call i32 @errcode(i32 noundef 50856066) #11
  %14 = tail call i32 (ptr, ...) @errmsg(ptr noundef nonnull @.str.22, ptr noundef nonnull %0) #11
  tail call void @errfinish(ptr noundef nonnull @.str.1, i32 noundef 2616, ptr noundef nonnull @__func__.read_objtype_from_string) #11
  unreachable
}